target datalayout = "e-m:e-p270:32:32-p271:32:32-p272:64:64-i64:64-i128:128-f80:128-n8:16:32:64-S128"
target triple = "x86_64-pc-linux-gnu"

%"struct.Luau::CodeGen::IrOp" = type { i32 }

; Function Attrs: mustprogress uwtable
define dso_local void @_ZN4Luau7CodeGen21translateInstJumpxEqSERNS0_9IrBuilderEPKji(ptr noundef nonnull align 8 dereferenceable(752) %0, ptr noundef %1, i32 noundef %2) #0 {
  %4 = alloca ptr, align 8
  %5 = alloca ptr, align 8
  %6 = alloca i32, align 4
  %7 = alloca i32, align 4
  %8 = alloca i32, align 4
  %9 = alloca i8, align 1
  %10 = alloca %"struct.Luau::CodeGen::IrOp", align 4
  %11 = alloca %"struct.Luau::CodeGen::IrOp", align 4
  %12 = alloca %"struct.Luau::CodeGen::IrOp", align 4
  %13 = alloca %"struct.Luau::CodeGen::IrOp", align 4
  %14 = alloca %"struct.Luau::CodeGen::IrOp", align 4
  %15 = alloca %"struct.Luau::CodeGen::IrOp", align 4
  %16 = alloca %"struct.Luau::CodeGen::IrOp", align 4
  %17 = alloca %"struct.Luau::CodeGen::IrOp", align 4
  %18 = alloca %"struct.Luau::CodeGen::IrOp", align 4
  %19 = alloca %"struct.Luau::CodeGen::IrOp", align 4
  %20 = alloca %"struct.Luau::CodeGen::IrOp", align 4
  %21 = alloca %"struct.Luau::CodeGen::IrOp", align 4
  %22 = alloca %"struct.Luau::CodeGen::IrOp", align 4
  %23 = alloca %"struct.Luau::CodeGen::IrOp", align 4
  %24 = alloca %"struct.Luau::CodeGen::IrOp", align 4
  %25 = alloca %"struct.Luau::CodeGen::IrOp", align 4
  %26 = alloca %"struct.Luau::CodeGen::IrOp", align 4
  %27 = alloca %"struct.Luau::CodeGen::IrOp", align 4
  %28 = alloca %"struct.Luau::CodeGen::IrOp", align 4
  %29 = alloca %"struct.Luau::CodeGen::IrOp", align 4
  %30 = alloca %"struct.Luau::CodeGen::IrOp", align 4
  %31 = alloca %"struct.Luau::CodeGen::IrOp", align 4
  store ptr %0, ptr %4, align 8, !tbaa !4
  store ptr %1, ptr %5, align 8, !tbaa !9
  store i32 %2, ptr %6, align 4, !tbaa !11
  call void @llvm.lifetime.start.p0(i64 4, ptr %7) #13
  %32 = load ptr, ptr %5, align 8, !tbaa !9
  %33 = load i32, ptr %32, align 4, !tbaa !11
  %34 = lshr i32 %33, 8
  %35 = and i32 %34, 255
  store i32 %35, ptr %7, align 4, !tbaa !11
  call void @llvm.lifetime.start.p0(i64 4, ptr %8) #13
  %36 = load ptr, ptr %5, align 8, !tbaa !9
  %37 = getelementptr inbounds i32, ptr %36, i64 1
  %38 = load i32, ptr %37, align 4, !tbaa !11
  store i32 %38, ptr %8, align 4, !tbaa !11
  call void @llvm.lifetime.start.p0(i64 1, ptr %9) #13
  %39 = load i32, ptr %8, align 4, !tbaa !11
  %40 = and i32 %39, -2147483648
  %41 = icmp ne i32 %40, 0
  %42 = zext i1 %41 to i8
  store i8 %42, ptr %9, align 1, !tbaa !113
  call void @llvm.lifetime.start.p0(i64 4, ptr %10) #13
  %43 = load ptr, ptr %4, align 8, !tbaa !4
  %44 = load i32, ptr %6, align 4, !tbaa !11
  %45 = add nsw i32 %44, 1
  %46 = load ptr, ptr %5, align 8, !tbaa !9
  %47 = load i32, ptr %46, align 4, !tbaa !11
  %48 = ashr i32 %47, 16
  %49 = add nsw i32 %45, %48
  %50 = call i32 @_ZN4Luau7CodeGen9IrBuilder11blockAtInstEj(ptr noundef nonnull align 8 dereferenceable(752) %43, i32 noundef %49)
  %51 = getelementptr inbounds nuw %"struct.Luau::CodeGen::IrOp", ptr %10, i32 0, i32 0
  store i32 %50, ptr %51, align 4
  call void @llvm.lifetime.start.p0(i64 4, ptr %11) #13
  %52 = load ptr, ptr %4, align 8, !tbaa !4
  %53 = load i32, ptr %6, align 4, !tbaa !11
  %54 = add nsw i32 %53, 2
  %55 = call i32 @_ZN4Luau7CodeGen9IrBuilder11blockAtInstEj(ptr noundef nonnull align 8 dereferenceable(752) %52, i32 noundef %54)
  %56 = getelementptr inbounds nuw %"struct.Luau::CodeGen::IrOp", ptr %11, i32 0, i32 0
  store i32 %55, ptr %56, align 4
  call void @llvm.lifetime.start.p0(i64 4, ptr %12) #13
  %57 = load ptr, ptr %4, align 8, !tbaa !4
  %58 = call i32 @_ZN4Luau7CodeGen9IrBuilder5blockENS0_11IrBlockKindE(ptr noundef nonnull align 8 dereferenceable(752) %57, i8 noundef zeroext 2)
  %59 = getelementptr inbounds nuw %"struct.Luau::CodeGen::IrOp", ptr %12, i32 0, i32 0
  store i32 %58, ptr %59, align 4
  call void @llvm.lifetime.start.p0(i64 4, ptr %13) #13
  %60 = load ptr, ptr %4, align 8, !tbaa !4
  %61 = load ptr, ptr %4, align 8, !tbaa !4
  %62 = load i32, ptr %7, align 4, !tbaa !11
  %63 = trunc i32 %62 to i8
  %64 = call i32 @_ZN4Luau7CodeGen9IrBuilder5vmRegEh(ptr noundef nonnull align 8 dereferenceable(752) %61, i8 noundef zeroext %63)
  %65 = getelementptr inbounds nuw %"struct.Luau::CodeGen::IrOp", ptr %14, i32 0, i32 0
  store i32 %64, ptr %65, align 4
  %66 = getelementptr inbounds nuw %"struct.Luau::CodeGen::IrOp", ptr %14, i32 0, i32 0
  %67 = load i32, ptr %66, align 4
  %68 = call i32 @_ZN4Luau7CodeGen9IrBuilder4instENS0_5IrCmdENS0_4IrOpE(ptr noundef nonnull align 8 dereferenceable(752) %60, i8 noundef zeroext 1, i32 %67)
  %69 = getelementptr inbounds nuw %"struct.Luau::CodeGen::IrOp", ptr %13, i32 0, i32 0
  store i32 %68, ptr %69, align 4
  %70 = load ptr, ptr %4, align 8, !tbaa !4
  call void @llvm.memcpy.p0.p0.i64(ptr align 4 %15, ptr align 4 %13, i64 4, i1 false), !tbaa.struct !112
  %71 = load ptr, ptr %4, align 8, !tbaa !4
  %72 = call i32 @_ZN4Luau7CodeGen9IrBuilder8constTagEh(ptr noundef nonnull align 8 dereferenceable(752) %71, i8 noundef zeroext 5)
  %73 = getelementptr inbounds nuw %"struct.Luau::CodeGen::IrOp", ptr %16, i32 0, i32 0
  store i32 %72, ptr %73, align 4
  call void @llvm.memcpy.p0.p0.i64(ptr align 4 %17, ptr align 4 %12, i64 4, i1 false), !tbaa.struct !112
  %74 = load i8, ptr %9, align 1, !tbaa !113, !range !114, !noundef !115
  %75 = trunc i8 %74 to i1
  br i1 %75, label %76, label %77

76:                                               ; preds = %3
  br label %78

77:                                               ; preds = %3
  br label %78

78:                                               ; preds = %77, %76
  %79 = phi ptr [ %10, %76 ], [ %11, %77 ]
  call void @llvm.memcpy.p0.p0.i64(ptr align 4 %18, ptr align 4 %79, i64 4, i1 false), !tbaa.struct !112
  %80 = getelementptr inbounds nuw %"struct.Luau::CodeGen::IrOp", ptr %15, i32 0, i32 0
  %81 = load i32, ptr %80, align 4
  %82 = getelementptr inbounds nuw %"struct.Luau::CodeGen::IrOp", ptr %16, i32 0, i32 0
  %83 = load i32, ptr %82, align 4
  %84 = getelementptr inbounds nuw %"struct.Luau::CodeGen::IrOp", ptr %17, i32 0, i32 0
  %85 = load i32, ptr %84, align 4
  %86 = getelementptr inbounds nuw %"struct.Luau::CodeGen::IrOp", ptr %18, i32 0, i32 0
  %87 = load i32, ptr %86, align 4
  %88 = call i32 @_ZN4Luau7CodeGen9IrBuilder4instENS0_5IrCmdENS0_4IrOpES3_S3_S3_(ptr noundef nonnull align 8 dereferenceable(752) %70, i8 noundef zeroext 49, i32 %81, i32 %83, i32 %85, i32 %87)
  %89 = getelementptr inbounds nuw %"struct.Luau::CodeGen::IrOp", ptr %19, i32 0, i32 0
  store i32 %88, ptr %89, align 4
  %90 = load ptr, ptr %4, align 8, !tbaa !4
  call void @llvm.memcpy.p0.p0.i64(ptr align 4 %20, ptr align 4 %12, i64 4, i1 false), !tbaa.struct !112
  %91 = getelementptr inbounds nuw %"struct.Luau::CodeGen::IrOp", ptr %20, i32 0, i32 0
  %92 = load i32, ptr %91, align 4
  call void @_ZN4Luau7CodeGen9IrBuilder10beginBlockENS0_4IrOpE(ptr noundef nonnull align 8 dereferenceable(752) %90, i32 %92)
  call void @llvm.lifetime.start.p0(i64 4, ptr %21) #13
  %93 = load ptr, ptr %4, align 8, !tbaa !4
  %94 = load ptr, ptr %4, align 8, !tbaa !4
  %95 = load i32, ptr %7, align 4, !tbaa !11
  %96 = trunc i32 %95 to i8
  %97 = call i32 @_ZN4Luau7CodeGen9IrBuilder5vmRegEh(ptr noundef nonnull align 8 dereferenceable(752) %94, i8 noundef zeroext %96)
  %98 = getelementptr inbounds nuw %"struct.Luau::CodeGen::IrOp", ptr %22, i32 0, i32 0
  store i32 %97, ptr %98, align 4
  %99 = getelementptr inbounds nuw %"struct.Luau::CodeGen::IrOp", ptr %22, i32 0, i32 0
  %100 = load i32, ptr %99, align 4
  %101 = call i32 @_ZN4Luau7CodeGen9IrBuilder4instENS0_5IrCmdENS0_4IrOpE(ptr noundef nonnull align 8 dereferenceable(752) %93, i8 noundef zeroext 2, i32 %100)
  %102 = getelementptr inbounds nuw %"struct.Luau::CodeGen::IrOp", ptr %21, i32 0, i32 0
  store i32 %101, ptr %102, align 4
  call void @llvm.lifetime.start.p0(i64 4, ptr %23) #13
  %103 = load ptr, ptr %4, align 8, !tbaa !4
  %104 = load ptr, ptr %4, align 8, !tbaa !4
  %105 = load i32, ptr %8, align 4, !tbaa !11
  %106 = and i32 %105, 16777215
  %107 = call i32 @_ZN4Luau7CodeGen9IrBuilder7vmConstEj(ptr noundef nonnull align 8 dereferenceable(752) %104, i32 noundef %106)
  %108 = getelementptr inbounds nuw %"struct.Luau::CodeGen::IrOp", ptr %24, i32 0, i32 0
  store i32 %107, ptr %108, align 4
  %109 = getelementptr inbounds nuw %"struct.Luau::CodeGen::IrOp", ptr %24, i32 0, i32 0
  %110 = load i32, ptr %109, align 4
  %111 = call i32 @_ZN4Luau7CodeGen9IrBuilder4instENS0_5IrCmdENS0_4IrOpE(ptr noundef nonnull align 8 dereferenceable(752) %103, i8 noundef zeroext 2, i32 %110)
  %112 = getelementptr inbounds nuw %"struct.Luau::CodeGen::IrOp", ptr %23, i32 0, i32 0
  store i32 %111, ptr %112, align 4
  %113 = load ptr, ptr %4, align 8, !tbaa !4
  call void @llvm.memcpy.p0.p0.i64(ptr align 4 %25, ptr align 4 %21, i64 4, i1 false), !tbaa.struct !112
  call void @llvm.memcpy.p0.p0.i64(ptr align 4 %26, ptr align 4 %23, i64 4, i1 false), !tbaa.struct !112
  %114 = load i8, ptr %9, align 1, !tbaa !113, !range !114, !noundef !115
  %115 = trunc i8 %114 to i1
  br i1 %115, label %116, label %117

116:                                              ; preds = %78
  br label %118

117:                                              ; preds = %78
  br label %118

118:                                              ; preds = %117, %116
  %119 = phi ptr [ %11, %116 ], [ %10, %117 ]
  call void @llvm.memcpy.p0.p0.i64(ptr align 4 %27, ptr align 4 %119, i64 4, i1 false), !tbaa.struct !112
  %120 = load i8, ptr %9, align 1, !tbaa !113, !range !114, !noundef !115
  %121 = trunc i8 %120 to i1
  br i1 %121, label %122, label %123

122:                                              ; preds = %118
  br label %124

123:                                              ; preds = %118
  br label %124

124:                                              ; preds = %123, %122
  %125 = phi ptr [ %10, %122 ], [ %11, %123 ]
  call void @llvm.memcpy.p0.p0.i64(ptr align 4 %28, ptr align 4 %125, i64 4, i1 false), !tbaa.struct !112
  %126 = getelementptr inbounds nuw %"struct.Luau::CodeGen::IrOp", ptr %25, i32 0, i32 0
  %127 = load i32, ptr %126, align 4
  %128 = getelementptr inbounds nuw %"struct.Luau::CodeGen::IrOp", ptr %26, i32 0, i32 0
  %129 = load i32, ptr %128, align 4
  %130 = getelementptr inbounds nuw %"struct.Luau::CodeGen::IrOp", ptr %27, i32 0, i32 0
  %131 = load i32, ptr %130, align 4
  %132 = getelementptr inbounds nuw %"struct.Luau::CodeGen::IrOp", ptr %28, i32 0, i32 0
  %133 = load i32, ptr %132, align 4
  %134 = call i32 @_ZN4Luau7CodeGen9IrBuilder4instENS0_5IrCmdENS0_4IrOpES3_S3_S3_(ptr noundef nonnull align 8 dereferenceable(752) %113, i8 noundef zeroext 51, i32 %127, i32 %129, i32 %131, i32 %133)
  %135 = getelementptr inbounds nuw %"struct.Luau::CodeGen::IrOp", ptr %29, i32 0, i32 0
  store i32 %134, ptr %135, align 4
  %136 = load ptr, ptr %4, align 8, !tbaa !4
  call void @llvm.memcpy.p0.p0.i64(ptr align 4 %30, ptr align 4 %11, i64 4, i1 false), !tbaa.struct !112
  %137 = getelementptr inbounds nuw %"struct.Luau::CodeGen::IrOp", ptr %30, i32 0, i32 0
  %138 = load i32, ptr %137, align 4
  %139 = call noundef zeroext i1 @_ZN4Luau7CodeGen9IrBuilder15isInternalBlockENS0_4IrOpE(ptr noundef nonnull align 8 dereferenceable(752) %136, i32 %138)
  br i1 %139, label %140, label %144

140:                                              ; preds = %124
  %141 = load ptr, ptr %4, align 8, !tbaa !4
  call void @llvm.memcpy.p0.p0.i64(ptr align 4 %31, ptr align 4 %11, i64 4, i1 false), !tbaa.struct !112
  %142 = getelementptr inbounds nuw %"struct.Luau::CodeGen::IrOp", ptr %31, i32 0, i32 0
  %143 = load i32, ptr %142, align 4
  call void @_ZN4Luau7CodeGen9IrBuilder10beginBlockENS0_4IrOpE(ptr noundef nonnull align 8 dereferenceable(752) %141, i32 %143)
  br label %144

144:                                              ; preds = %140, %124
  call void @llvm.lifetime.end.p0(i64 4, ptr %23) #13
  call void @llvm.lifetime.end.p0(i64 4, ptr %21) #13
  call void @llvm.lifetime.end.p0(i64 4, ptr %13) #13
  call void @llvm.lifetime.end.p0(i64 4, ptr %12) #13
  call void @llvm.lifetime.end.p0(i64 4, ptr %11) #13
  call void @llvm.lifetime.end.p0(i64 4, ptr %10) #13
  call void @llvm.lifetime.end.p0(i64 1, ptr %9) #13
  call void @llvm.lifetime.end.p0(i64 4, ptr %8) #13
  call void @llvm.lifetime.end.p0(i64 4, ptr %7) #13
  ret void
}